target datalayout = "e-m:e-p270:32:32-p271:32:32-p272:64:64-i64:64-i128:128-f80:128-n8:16:32:64-S128"
target triple = "x86_64-pc-linux-gnu"

%struct.mbedtls_x509write_cert = type { i32, [20 x i8], i64, ptr, ptr, ptr, ptr, i32, [16 x i8], [16 x i8], ptr }

@.str = private unnamed_addr constant [4 x i8] c"U\1D\13\00", align 1

; Function Attrs: nounwind uwtable
define hidden i32 @mbedtls_x509write_crt_set_extension(ptr noundef %0, ptr noundef %1, i64 noundef %2, i32 noundef %3, ptr noundef %4, i64 noundef %5) #0 {
  %7 = alloca ptr, align 8
  %8 = alloca ptr, align 8
  %9 = alloca i64, align 8
  %10 = alloca i32, align 4
  %11 = alloca ptr, align 8
  %12 = alloca i64, align 8
  store ptr %0, ptr %7, align 8, !tbaa !3
  store ptr %1, ptr %8, align 8, !tbaa !19
  store i64 %2, ptr %9, align 8, !tbaa !23
  store i32 %3, ptr %10, align 4, !tbaa !14
  store ptr %4, ptr %11, align 8, !tbaa !19
  store i64 %5, ptr %12, align 8, !tbaa !23
  %13 = load ptr, ptr %7, align 8, !tbaa !3
  %14 = getelementptr inbounds nuw %struct.mbedtls_x509write_cert, ptr %13, i32 0, i32 10
  %15 = load ptr, ptr %8, align 8, !tbaa !19
  %16 = load i64, ptr %9, align 8, !tbaa !23
  %17 = load i32, ptr %10, align 4, !tbaa !14
  %18 = load ptr, ptr %11, align 8, !tbaa !19
  %19 = load i64, ptr %12, align 8, !tbaa !23
  %20 = call i32 @mbedtls_x509_set_extension(ptr noundef %14, ptr noundef %15, i64 noundef %16, i32 noundef %17, ptr noundef %18, i64 noundef %19)
  ret i32 %20
}

; Function Attrs: nounwind uwtable
define hidden i32 @mbedtls_x509write_crt_set_basic_constraints(ptr noundef %0, i32 noundef %1, i32 noundef %2) #0 {
  %4 = alloca i32, align 4
  %5 = alloca ptr, align 8
  %6 = alloca i32, align 4
  %7 = alloca i32, align 4
  %8 = alloca i32, align 4
  %9 = alloca [9 x i8], align 1
  %10 = alloca ptr, align 8
  %11 = alloca i64, align 8
  %12 = alloca i32, align 4
  store ptr %0, ptr %5, align 8, !tbaa !3
  store i32 %1, ptr %6, align 4, !tbaa !14
  store i32 %2, ptr %7, align 4, !tbaa !14
  call void @llvm.lifetime.start.p0(i64 4, ptr %8) #8
  store i32 -110, ptr %8, align 4, !tbaa !14
  call void @llvm.lifetime.start.p0(i64 9, ptr %9) #8
  call void @llvm.lifetime.start.p0(i64 8, ptr %10) #8
  %13 = getelementptr inbounds [9 x i8], ptr %9, i64 0, i64 0
  %14 = getelementptr inbounds nuw i8, ptr %13, i64 9
  store ptr %14, ptr %10, align 8, !tbaa !19
  call void @llvm.lifetime.start.p0(i64 8, ptr %11) #8
  store i64 0, ptr %11, align 8, !tbaa !23
  %15 = getelementptr inbounds [9 x i8], ptr %9, i64 0, i64 0
  call void @llvm.memset.p0.i64(ptr align 1 %15, i8 0, i64 9, i1 false)
  %16 = load i32, ptr %6, align 4, !tbaa !14
  %17 = icmp ne i32 %16, 0
  br i1 %17, label %18, label %22

18:                                               ; preds = %3
  %19 = load i32, ptr %7, align 4, !tbaa !14
  %20 = icmp sgt i32 %19, 127
  br i1 %20, label %21, label %22

21:                                               ; preds = %18
  store i32 -10240, ptr %4, align 4
  store i32 1, ptr %12, align 4
  br label %98

22:                                               ; preds = %18, %3
  %23 = load i32, ptr %6, align 4, !tbaa !14
  %24 = icmp ne i32 %23, 0
  br i1 %24, label %25, label %59

25:                                               ; preds = %22
  %26 = load i32, ptr %7, align 4, !tbaa !14
  %27 = icmp sge i32 %26, 0
  br i1 %27, label %28, label %44

28:                                               ; preds = %25
  br label %29

29:                                               ; preds = %28
  %30 = getelementptr inbounds [9 x i8], ptr %9, i64 0, i64 0
  %31 = load i32, ptr %7, align 4, !tbaa !14
  %32 = call i32 @mbedtls_asn1_write_int(ptr noundef %10, ptr noundef %30, i32 noundef %31)
  store i32 %32, ptr %8, align 4, !tbaa !14
  %33 = icmp slt i32 %32, 0
  br i1 %33, label %34, label %36

34:                                               ; preds = %29
  %35 = load i32, ptr %8, align 4, !tbaa !14
  store i32 %35, ptr %4, align 4
  store i32 1, ptr %12, align 4
  br label %98

36:                                               ; preds = %29
  %37 = load i32, ptr %8, align 4, !tbaa !14
  %38 = sext i32 %37 to i64
  %39 = load i64, ptr %11, align 8, !tbaa !23
  %40 = add i64 %39, %38
  store i64 %40, ptr %11, align 8, !tbaa !23
  br label %41

41:                                               ; preds = %36
  br label %42

42:                                               ; preds = %41
  br label %43

43:                                               ; preds = %42
  br label %44

44:                                               ; preds = %43, %25
  br label %45

45:                                               ; preds = %44
  %46 = getelementptr inbounds [9 x i8], ptr %9, i64 0, i64 0
  %47 = call i32 @mbedtls_asn1_write_bool(ptr noundef %10, ptr noundef %46, i32 noundef 1)
  store i32 %47, ptr %8, align 4, !tbaa !14
  %48 = icmp slt i32 %47, 0
  br i1 %48, label %49, label %51

49:                                               ; preds = %45
  %50 = load i32, ptr %8, align 4, !tbaa !14
  store i32 %50, ptr %4, align 4
  store i32 1, ptr %12, align 4
  br label %98

51:                                               ; preds = %45
  %52 = load i32, ptr %8, align 4, !tbaa !14
  %53 = sext i32 %52 to i64
  %54 = load i64, ptr %11, align 8, !tbaa !23
  %55 = add i64 %54, %53
  store i64 %55, ptr %11, align 8, !tbaa !23
  br label %56

56:                                               ; preds = %51
  br label %57

57:                                               ; preds = %56
  br label %58

58:                                               ; preds = %57
  br label %59

59:                                               ; preds = %58, %22
  br label %60

60:                                               ; preds = %59
  %61 = getelementptr inbounds [9 x i8], ptr %9, i64 0, i64 0
  %62 = load i64, ptr %11, align 8, !tbaa !23
  %63 = call i32 @mbedtls_asn1_write_len(ptr noundef %10, ptr noundef %61, i64 noundef %62)
  store i32 %63, ptr %8, align 4, !tbaa !14
  %64 = icmp slt i32 %63, 0
  br i1 %64, label %65, label %67

65:                                               ; preds = %60
  %66 = load i32, ptr %8, align 4, !tbaa !14
  store i32 %66, ptr %4, align 4
  store i32 1, ptr %12, align 4
  br label %98

67:                                               ; preds = %60
  %68 = load i32, ptr %8, align 4, !tbaa !14
  %69 = sext i32 %68 to i64
  %70 = load i64, ptr %11, align 8, !tbaa !23
  %71 = add i64 %70, %69
  store i64 %71, ptr %11, align 8, !tbaa !23
  br label %72

72:                                               ; preds = %67
  br label %73

73:                                               ; preds = %72
  br label %74

74:                                               ; preds = %73
  br label %75

75:                                               ; preds = %74
  %76 = getelementptr inbounds [9 x i8], ptr %9, i64 0, i64 0
  %77 = call i32 @mbedtls_asn1_write_tag(ptr noundef %10, ptr noundef %76, i8 noundef zeroext 48)
  store i32 %77, ptr %8, align 4, !tbaa !14
  %78 = icmp slt i32 %77, 0
  br i1 %78, label %79, label %81

79:                                               ; preds = %75
  %80 = load i32, ptr %8, align 4, !tbaa !14
  store i32 %80, ptr %4, align 4
  store i32 1, ptr %12, align 4
  br label %98

81:                                               ; preds = %75
  %82 = load i32, ptr %8, align 4, !tbaa !14
  %83 = sext i32 %82 to i64
  %84 = load i64, ptr %11, align 8, !tbaa !23
  %85 = add i64 %84, %83
  store i64 %85, ptr %11, align 8, !tbaa !23
  br label %86

86:                                               ; preds = %81
  br label %87

87:                                               ; preds = %86
  br label %88

88:                                               ; preds = %87
  %89 = load ptr, ptr %5, align 8, !tbaa !3
  %90 = load i32, ptr %6, align 4, !tbaa !14
  %91 = getelementptr inbounds [9 x i8], ptr %9, i64 0, i64 0
  %92 = getelementptr inbounds nuw i8, ptr %91, i64 9
  %93 = load i64, ptr %11, align 8, !tbaa !23
  %94 = sub i64 0, %93
  %95 = getelementptr inbounds i8, ptr %92, i64 %94
  %96 = load i64, ptr %11, align 8, !tbaa !23
  %97 = call i32 @mbedtls_x509write_crt_set_extension(ptr noundef %89, ptr noundef @.str, i64 noundef 3, i32 noundef %90, ptr noundef %95, i64 noundef %96)
  store i32 %97, ptr %4, align 4
  store i32 1, ptr %12, align 4
  br label %98

98:                                               ; preds = %88, %79, %65, %49, %34, %21
  call void @llvm.lifetime.end.p0(i64 8, ptr %11) #8
  call void @llvm.lifetime.end.p0(i64 8, ptr %10) #8
  call void @llvm.lifetime.end.p0(i64 9, ptr %9) #8
  call void @llvm.lifetime.end.p0(i64 4, ptr %8) #8
  %99 = load i32, ptr %4, align 4
  ret i32 %99
}