; Function Attrs: nounwind uwtable
define hidden i32 @mbedtls_x509write_crt_set_basic_constraints(ptr noundef %0, i32 noundef %1, i32 noundef %2) local_unnamed_addr #2 {
  %4 = alloca [9 x i8], align 1
  %5 = alloca ptr, align 8
  call void @llvm.lifetime.start.p0(i64 9, ptr nonnull %4) #11
  call void @llvm.lifetime.start.p0(i64 8, ptr nonnull %5) #11
  %6 = getelementptr inbounds nuw i8, ptr %4, i64 9
  store ptr %6, ptr %5, align 8, !tbaa !17
  call void @llvm.memset.p0.i64(ptr noundef nonnull align 1 dereferenceable(9) %4, i8 0, i64 9, i1 false)
  %7 = icmp ne i32 %1, 0
  %8 = icmp sgt i32 %2, 127
  %or.cond = and i1 %7, %8
  br i1 %or.cond, label %38, label %9

9:                                                ; preds = %3
  br i1 %7, label %10, label %23

10:                                               ; preds = %9
  %11 = icmp sgt i32 %2, -1
  br i1 %11, label %12, label %17

12:                                               ; preds = %10
  %13 = call i32 @mbedtls_asn1_write_int(ptr noundef nonnull %5, ptr noundef nonnull %4, i32 noundef %2) #11
  %14 = icmp slt i32 %13, 0
  br i1 %14, label %38, label %15

15:                                               ; preds = %12
  %16 = zext nneg i32 %13 to i64
  br label %17

17:                                               ; preds = %10, %15
  %.0 = phi i64 [ %16, %15 ], [ 0, %10 ]
  %18 = call i32 @mbedtls_asn1_write_bool(ptr noundef nonnull %5, ptr noundef nonnull %4, i32 noundef 1) #11
  %19 = icmp slt i32 %18, 0
  br i1 %19, label %38, label %20

20:                                               ; preds = %17
  %21 = zext nneg i32 %18 to i64
  %22 = add nuw nsw i64 %.0, %21
  br label %23

23:                                               ; preds = %9, %20
  %.1 = phi i64 [ %22, %20 ], [ 0, %9 ]
  %24 = call i32 @mbedtls_asn1_write_len(ptr noundef nonnull %5, ptr noundef nonnull %4, i64 noundef %.1) #11
  %25 = icmp slt i32 %24, 0
  br i1 %25, label %38, label %26

26:                                               ; preds = %23
  %27 = call i32 @mbedtls_asn1_write_tag(ptr noundef nonnull %5, ptr noundef nonnull %4, i8 noundef zeroext 48) #11
  %28 = icmp slt i32 %27, 0
  br i1 %28, label %38, label %29

29:                                               ; preds = %26
  %30 = zext nneg i32 %24 to i64
  %31 = add nuw nsw i64 %.1, %30
  %32 = zext nneg i32 %27 to i64
  %33 = add nuw nsw i64 %31, %32
  %34 = sub nsw i64 0, %33
  %35 = getelementptr inbounds i8, ptr %6, i64 %34
  %36 = getelementptr inbounds nuw i8, ptr %0, i64 104
  %37 = call i32 @mbedtls_x509_set_extension(ptr noundef nonnull %36, ptr noundef nonnull @.str, i64 noundef 3, i32 noundef %1, ptr noundef nonnull %35, i64 noundef %33) #11
  br label %38

38:                                               ; preds = %26, %23, %17, %12, %3, %29
  %.023 = phi i32 [ %37, %29 ], [ -10240, %3 ], [ %13, %12 ], [ %18, %17 ], [ %24, %23 ], [ %27, %26 ]
  call void @llvm.lifetime.end.p0(i64 8, ptr nonnull %5) #11
  call void @llvm.lifetime.end.p0(i64 9, ptr nonnull %4) #11
  ret i32 %.023
}